target datalayout = "e-m:e-p270:32:32-p271:32:32-p272:64:64-i64:64-i128:128-f80:128-n8:16:32:64-S128"
target triple = "x86_64-pc-linux-gnu"

%"class.datalog::table_signature" = type <{ %"class.datalog::tr_infrastructure<datalog::table_traits>::signature_base", i32, [4 x i8] }>
%"class.datalog::tr_infrastructure<datalog::table_traits>::signature_base" = type { %class.svector }
%class.svector = type { %class.vector }
%class.vector = type { ptr }
%"class.datalog::tr_infrastructure<datalog::table_traits>::base_ancestor" = type <{ ptr, ptr, %"class.datalog::table_signature", i32, [4 x i8] }>

; Function Attrs: mustprogress nounwind uwtable
define linkonce_odr hidden noundef nonnull align 8 dereferenceable(32) ptr @_ZNK7datalog17tr_infrastructureINS_12table_traitsEE13base_ancestor10get_pluginEv(ptr noundef nonnull align 8 dereferenceable(36) %0) #7 comdat align 2 {
  %2 = alloca ptr, align 8
  store ptr %0, ptr %2, align 8, !tbaa !46
  %3 = load ptr, ptr %2, align 8
  %4 = getelementptr inbounds nuw %"class.datalog::tr_infrastructure<datalog::table_traits>::base_ancestor", ptr %3, i32 0, i32 1
  %5 = load ptr, ptr %4, align 8, !tbaa !200
  ret ptr %5
}

; Function Attrs: mustprogress uwtable
define linkonce_odr hidden void @_ZN7datalog17lazy_table_plugin7join_fnC2ERKNS_15table_signatureES4_jPKjS6_(ptr noundef nonnull align 8 dereferenceable(40) %0, ptr noundef nonnull align 8 dereferenceable(12) %1, ptr noundef nonnull align 8 dereferenceable(12) %2, i32 noundef %3, ptr noundef %4, ptr noundef %5) unnamed_addr #4 comdat align 2 {
  %7 = alloca ptr, align 8
  %8 = alloca ptr, align 8
  %9 = alloca ptr, align 8
  %10 = alloca i32, align 4
  %11 = alloca ptr, align 8
  %12 = alloca ptr, align 8
  store ptr %0, ptr %7, align 8, !tbaa !48
  store ptr %1, ptr %8, align 8, !tbaa !27
  store ptr %2, ptr %9, align 8, !tbaa !27
  store i32 %3, ptr %10, align 4, !tbaa !43
  store ptr %4, ptr %11, align 8, !tbaa !44
  store ptr %5, ptr %12, align 8, !tbaa !44
  %13 = load ptr, ptr %7, align 8
  %14 = load ptr, ptr %8, align 8, !tbaa !27
  %15 = load ptr, ptr %9, align 8, !tbaa !27
  %16 = load i32, ptr %10, align 4, !tbaa !43
  %17 = load ptr, ptr %11, align 8, !tbaa !44
  %18 = load ptr, ptr %12, align 8, !tbaa !44
  call void @_ZN7datalog17tr_infrastructureINS_12table_traitsEE18convenient_join_fnC2ERKNS_15table_signatureES6_jPKjS8_(ptr noundef nonnull align 8 dereferenceable(40) %13, ptr noundef nonnull align 8 dereferenceable(12) %14, ptr noundef nonnull align 8 dereferenceable(12) %15, i32 noundef %16, ptr noundef %17, ptr noundef %18)
  store ptr getelementptr inbounds inrange(-16, 24) ({ [5 x ptr] }, ptr @_ZTVN7datalog17lazy_table_plugin7join_fnE, i32 0, i32 0, i32 2), ptr %13, align 8, !tbaa !13
  ret void
}

; Function Attrs: mustprogress nounwind uwtable
define linkonce_odr hidden noundef nonnull align 8 dereferenceable(12) ptr @_ZNK7datalog17tr_infrastructureINS_12table_traitsEE13base_ancestor13get_signatureEv(ptr noundef nonnull align 8 dereferenceable(36) %0) #7 comdat align 2 {
  %2 = alloca ptr, align 8
  store ptr %0, ptr %2, align 8, !tbaa !46
  %3 = load ptr, ptr %2, align 8
  %4 = getelementptr inbounds nuw %"class.datalog::tr_infrastructure<datalog::table_traits>::base_ancestor", ptr %3, i32 0, i32 2
  ret ptr %4
}

; Function Attrs: mustprogress nounwind uwtable
define linkonce_odr hidden noundef zeroext i1 @_ZNK7datalog17tr_infrastructureINS_12table_traitsEE13plugin_object10check_kindERKNS_10table_baseE(ptr noundef nonnull align 8 dereferenceable(32) %0, ptr noundef nonnull align 8 dereferenceable(36) %1) #7 comdat align 2 {
  %3 = alloca ptr, align 8
  %4 = alloca ptr, align 8
  store ptr %0, ptr %3, align 8, !tbaa !19
  store ptr %1, ptr %4, align 8, !tbaa !37
  %5 = load ptr, ptr %3, align 8
  %6 = load ptr, ptr %4, align 8, !tbaa !37
  %7 = call noundef nonnull align 8 dereferenceable(32) ptr @_ZNK7datalog17tr_infrastructureINS_12table_traitsEE13base_ancestor10get_pluginEv(ptr noundef nonnull align 8 dereferenceable(36) %6)
  %8 = icmp eq ptr %7, %5
  ret i1 %8
}

; Function Attrs: mustprogress uwtable
define hidden noundef ptr @_ZN7datalog17lazy_table_plugin10mk_join_fnERKNS_10table_baseES3_jPKjS5_(ptr noundef nonnull align 8 dereferenceable(40) %0, ptr noundef nonnull align 8 dereferenceable(36) %1, ptr noundef nonnull align 8 dereferenceable(36) %2, i32 noundef %3, ptr noundef %4, ptr noundef %5) unnamed_addr #4 align 2 {
  %7 = alloca ptr, align 8
  %8 = alloca ptr, align 8
  %9 = alloca ptr, align 8
  %10 = alloca ptr, align 8
  %11 = alloca i32, align 4
  %12 = alloca ptr, align 8
  %13 = alloca ptr, align 8
  store ptr %0, ptr %8, align 8, !tbaa !25
  store ptr %1, ptr %9, align 8, !tbaa !37
  store ptr %2, ptr %10, align 8, !tbaa !37
  store i32 %3, ptr %11, align 4, !tbaa !43
  store ptr %4, ptr %12, align 8, !tbaa !44
  store ptr %5, ptr %13, align 8, !tbaa !44
  %14 = load ptr, ptr %8, align 8
  %15 = load ptr, ptr %9, align 8, !tbaa !37
  %16 = call noundef zeroext i1 @_ZNK7datalog17tr_infrastructureINS_12table_traitsEE13plugin_object10check_kindERKNS_10table_baseE(ptr noundef nonnull align 8 dereferenceable(32) %14, ptr noundef nonnull align 8 dereferenceable(36) %15)
  br i1 %16, label %17, label %29

17:                                               ; preds = %6
  %18 = load ptr, ptr %10, align 8, !tbaa !37
  %19 = call noundef zeroext i1 @_ZNK7datalog17tr_infrastructureINS_12table_traitsEE13plugin_object10check_kindERKNS_10table_baseE(ptr noundef nonnull align 8 dereferenceable(32) %14, ptr noundef nonnull align 8 dereferenceable(36) %18)
  br i1 %19, label %20, label %29

20:                                               ; preds = %17
  %21 = call noalias noundef ptr @_ZN6memory8allocateEm(i64 noundef 40)
  %22 = load ptr, ptr %9, align 8, !tbaa !37
  %23 = call noundef nonnull align 8 dereferenceable(12) ptr @_ZNK7datalog17tr_infrastructureINS_12table_traitsEE13base_ancestor13get_signatureEv(ptr noundef nonnull align 8 dereferenceable(36) %22)
  %24 = load ptr, ptr %10, align 8, !tbaa !37
  %25 = call noundef nonnull align 8 dereferenceable(12) ptr @_ZNK7datalog17tr_infrastructureINS_12table_traitsEE13base_ancestor13get_signatureEv(ptr noundef nonnull align 8 dereferenceable(36) %24)
  %26 = load i32, ptr %11, align 4, !tbaa !43
  %27 = load ptr, ptr %12, align 8, !tbaa !44
  %28 = load ptr, ptr %13, align 8, !tbaa !44
  call void @_ZN7datalog17lazy_table_plugin7join_fnC2ERKNS_15table_signatureES4_jPKjS6_(ptr noundef nonnull align 8 dereferenceable(40) %21, ptr noundef nonnull align 8 dereferenceable(12) %23, ptr noundef nonnull align 8 dereferenceable(12) %25, i32 noundef %26, ptr noundef %27, ptr noundef %28)
  store ptr %21, ptr %7, align 8
  br label %30

29:                                               ; preds = %17, %6
  store ptr null, ptr %7, align 8
  br label %30

30:                                               ; preds = %29, %20
  %31 = load ptr, ptr %7, align 8
  ret ptr %31
}